target datalayout = "e-m:e-p270:32:32-p271:32:32-p272:64:64-i64:64-i128:128-f80:128-n8:16:32:64-S128"
target triple = "x86_64-pc-linux-gnu"

%"class.std::locale" = type { ptr }
%"class.std::basic_streambuf" = type { ptr, ptr, ptr, ptr, ptr, ptr, ptr, %"class.std::locale" }
%"struct.Stockfish::(anonymous namespace)::Tie" = type { %"class.std::basic_streambuf", ptr, ptr }

@_ZZN9Stockfish12_GLOBAL__N_13Tie3logEiPKcE4last = internal global i32 10, align 4
@.str.36 = private unnamed_addr constant [4 x i8] c"<< \00", align 1

; Function Attrs: mustprogress nounwind uwtable
define internal noundef i32 @_ZN9Stockfish12_GLOBAL__N_13Tie3logEiPKc(ptr noundef nonnull align 8 dereferenceable(80) %0, i32 noundef %1, ptr noundef %2) #4 align 2 {
  %4 = alloca ptr, align 8
  %5 = alloca i32, align 4
  %6 = alloca ptr, align 8
  store ptr %0, ptr %4, align 8
  store i32 %1, ptr %5, align 4
  store ptr %2, ptr %6, align 8
  %7 = load ptr, ptr %4, align 8
  %8 = load i32, ptr @_ZZN9Stockfish12_GLOBAL__N_13Tie3logEiPKcE4last, align 4
  %9 = icmp eq i32 %8, 10
  br i1 %9, label %10, label %15

10:                                               ; preds = %3
  %11 = getelementptr inbounds %"struct.Stockfish::(anonymous namespace)::Tie", ptr %7, i32 0, i32 2
  %12 = load ptr, ptr %11, align 8
  %13 = load ptr, ptr %6, align 8
  %14 = call noundef i64 @_ZNSt15basic_streambufIcSt11char_traitsIcEE5sputnEPKcl(ptr noundef nonnull align 8 dereferenceable(64) %12, ptr noundef %13, i64 noundef 3)
  br label %15

15:                                               ; preds = %10, %3
  %16 = getelementptr inbounds %"struct.Stockfish::(anonymous namespace)::Tie", ptr %7, i32 0, i32 2
  %17 = load ptr, ptr %16, align 8
  %18 = load i32, ptr %5, align 4
  %19 = trunc i32 %18 to i8
  %20 = call noundef i32 @_ZNSt15basic_streambufIcSt11char_traitsIcEE5sputcEc(ptr noundef nonnull align 8 dereferenceable(64) %17, i8 noundef signext %19)
  store i32 %20, ptr @_ZZN9Stockfish12_GLOBAL__N_13Tie3logEiPKcE4last, align 4
  ret i32 %20
}

; Function Attrs: mustprogress nounwind uwtable
define internal noundef i32 @_ZN9Stockfish12_GLOBAL__N_13Tie8overflowEi(ptr noundef nonnull align 8 dereferenceable(80) %0, i32 noundef %1) unnamed_addr #4 align 2 {
  %3 = alloca ptr, align 8
  %4 = alloca i32, align 4
  store ptr %0, ptr %3, align 8
  store i32 %1, ptr %4, align 4
  %5 = load ptr, ptr %3, align 8
  %6 = getelementptr inbounds %"struct.Stockfish::(anonymous namespace)::Tie", ptr %5, i32 0, i32 1
  %7 = load ptr, ptr %6, align 8
  %8 = load i32, ptr %4, align 4
  %9 = trunc i32 %8 to i8
  %10 = call noundef i32 @_ZNSt15basic_streambufIcSt11char_traitsIcEE5sputcEc(ptr noundef nonnull align 8 dereferenceable(64) %7, i8 noundef signext %9)
  %11 = call noundef i32 @_ZN9Stockfish12_GLOBAL__N_13Tie3logEiPKc(ptr noundef nonnull align 8 dereferenceable(80) %5, i32 noundef %10, ptr noundef @.str.36)
  ret i32 %11
}