; Function Attrs: mustprogress nounwind uwtable
define internal noundef i32 @_ZN9Stockfish12_GLOBAL__N_13Tie8overflowEi(ptr nocapture noundef nonnull readonly align 8 dereferenceable(80) %0, i32 noundef %1) unnamed_addr #3 align 2 {
  %3 = getelementptr inbounds i8, ptr %0, i64 64
  %4 = load ptr, ptr %3, align 8
  %5 = trunc i32 %1 to i8
  %6 = tail call noundef i32 @_ZNSt15basic_streambufIcSt11char_traitsIcEE5sputcEc(ptr noundef nonnull align 8 dereferenceable(64) %4, i8 noundef signext %5) #21
  %7 = load i32, ptr @_ZZN9Stockfish12_GLOBAL__N_13Tie3logEiPKcE4last, align 4
  %8 = icmp eq i32 %7, 10
  br i1 %8, label %9, label %_ZN9Stockfish12_GLOBAL__N_13Tie3logEiPKc.exit

9:                                                ; preds = %2
  %10 = getelementptr inbounds i8, ptr %0, i64 72
  %11 = load ptr, ptr %10, align 8
  %12 = tail call noundef i64 @_ZNSt15basic_streambufIcSt11char_traitsIcEE5sputnEPKcl(ptr noundef nonnull align 8 dereferenceable(64) %11, ptr noundef nonnull @.str.36, i64 noundef 3) #21
  br label %_ZN9Stockfish12_GLOBAL__N_13Tie3logEiPKc.exit

_ZN9Stockfish12_GLOBAL__N_13Tie3logEiPKc.exit:    ; preds = %2, %9
  %13 = getelementptr inbounds i8, ptr %0, i64 72
  %14 = load ptr, ptr %13, align 8
  %15 = trunc i32 %6 to i8
  %16 = tail call noundef i32 @_ZNSt15basic_streambufIcSt11char_traitsIcEE5sputcEc(ptr noundef nonnull align 8 dereferenceable(64) %14, i8 noundef signext %15) #21
  store i32 %16, ptr @_ZZN9Stockfish12_GLOBAL__N_13Tie3logEiPKcE4last, align 4
  ret i32 %16
}